Certificate:
    Data:
        Version: 3 (0x2)
        Serial Number: 1 (0x1)
        Signature Algorithm: sha1WithRSAEncryption
        Issuer: C=US, ST=Indiana, L=West Lafayette, O=Purdue University, OU=Department of Computer Sciences, CN=spare2-2.cs.purdue.edu/emailAddress=software@cs.purdue.edu
        Validity
            Not Before: Feb 12 02:21:15 2013 GMT
            Not After : Feb 12 02:21:15 2014 GMT
        Subject: C=US, ST=Indiana, O=Purdue University, OU=Department of Computer Sciences, CN=spare2-2.cs.purdue.edu/emailAddress=software@cs.purdue.edu
        Subject Public Key Info:
            Public Key Algorithm: rsaEncryption
                Public-Key: (2048 bit)
                Modulus:
                    00:df:27:9f:88:9e:b9:99:8f:05:55:a4:72:45:6e:
                    cd:72:61:51:a8:a2:76:c4:ae:d1:29:2a:6b:3d:23:
                    7e:f1:3a:3b:c1:b1:a3:83:f5:9b:e6:8f:41:e7:85:
                    37:36:16:32:77:28:12:6a:d8:f6:27:60:94:ce:f4:
                    22:e0:a7:23:51:38:3e:b1:b0:11:fd:21:ee:8b:b5:
                    e7:3f:37:ee:b1:1a:d9:45:75:91:59:af:a8:10:7c:
                    31:86:71:e1:f0:3d:f4:45:28:64:c1:f3:ab:dc:00:
                    a7:d0:e9:24:9e:d2:1a:e4:f2:ca:4d:d8:fe:e3:37:
                    69:b1:8e:d2:17:fc:31:b5:ee:a1:42:49:1a:fc:2b:
                    cf:cf:24:bd:b4:25:b5:cd:6e:a3:30:89:62:61:dd:
                    08:38:fe:ec:37:4c:15:e3:38:22:1e:0b:34:38:16:
                    39:64:53:8b:83:70:f4:30:44:29:1c:3e:97:43:e1:
                    fb:d3:80:d5:71:b9:67:00:32:11:27:55:1d:d3:dd:
                    ff:60:9c:e2:20:b4:96:b7:a2:f6:c3:44:a8:6f:ef:
                    93:41:90:17:c5:dd:a6:e8:3f:98:a6:9d:27:84:91:
                    19:f4:ac:36:35:75:a3:08:21:99:a9:cd:97:f4:f1:
                    1e:34:31:f0:7a:c3:eb:70:3d:e5:f4:b1:8c:49:d0:
                    75:7b
                Exponent: 65537 (0x10001)
        X509v3 extensions:
            X509v3 Basic Constraints: 
                CA:FALSE
            Netscape Comment: 
                OpenSSL Generated Certificate
            X509v3 Subject Key Identifier: 
                C9:59:ED:0E:2E:9F:40:AF:4F:ED:77:4A:75:04:FF:22:77:6E:5E:23
            X509v3 Authority Key Identifier: 
                keyid:DC:39:76:EE:37:84:D0:16:8C:BE:EE:17:5D:D7:FF:07:9A:78:EF:0E

    Signature Algorithm: sha1WithRSAEncryption
        3f:1a:1b:19:f6:0f:a3:8d:4a:c1:89:1d:a3:27:a1:8a:85:a1:
        86:dd:00:27:5e:7f:37:d4:0c:3c:43:a2:1d:9f:40:20:9f:93:
        a0:c6:21:07:14:7f:df:98:c3:ba:51:db:44:5d:cf:35:27:4e:
        18:9c:fb:4a:ac:f5:be:7c:b6:0b:4b:6d:07:78:cd:b0:98:4b:
        a4:89:96:8c:72:a4:87:9c:fd:66:72:ec:bc:cd:5c:7c:64:7c:
        4e:1d:27:e1:c9:5d:e7:ab:d3:27:2b:1c:a9:07:a1:f3:90:9f:
        ea:68:69:60:1a:bc:ce:fe:c5:8c:df:e6:33:dd:f8:fb:93:4c:
        db:f4:e7:7b:6f:96:ab:27:58:ed:09:60:3c:21:4e:15:a1:1b:
        4d:34:53:1b:10:d6:b8:bb:23:a8:a0:74:b7:7a:03:96:30:ba:
        91:ef:57:48:61:45:50:5c:a6:5f:d5:f3:44:1c:8f:52:1b:d5:
        cf:37:ae:52:2c:7f:ef:df:d6:68:ec:eb:3b:50:17:e1:80:c1:
        48:65:55:d1:ca:78:35:83:34:57:5f:e7:ad:ae:b0:66:9d:e6:
        66:4d:7c:e9:6b:8f:c7:da:b2:66:92:d5:c7:42:2e:80:78:ae:
        7c:c2:ee:20:1e:c1:1d:d8:ba:6d:0c:f6:1a:be:a9:6f:87:fb:
        c7:fb:08:cb
-----BEGIN CERTIFICATE-----
MIIEazCCA1OgAwIBAgIBATANBgkqhkiG9w0BAQUFADCBxjELMAkGA1UEBhMCVVMx
EDAOBgNVBAgMB0luZGlhbmExFzAVBgNVBAcMDldlc3QgTGFmYXlldHRlMRowGAYD
VQQKDBFQdXJkdWUgVW5pdmVyc2l0eTEoMCYGA1UECwwfRGVwYXJ0bWVudCBvZiBD
b21wdXRlciBTY2llbmNlczEfMB0GA1UEAwwWc3BhcmUyLTIuY3MucHVyZHVlLmVk
dTElMCMGCSqGSIb3DQEJARYWc29mdHdhcmVAY3MucHVyZHVlLmVkdTAeFw0xMzAy
MTIwMjIxMTVaFw0xNDAyMTIwMjIxMTVaMIGtMQswCQYDVQQGEwJVUzEQMA4GA1UE
CAwHSW5kaWFuYTEaMBgGA1UECgwRUHVyZHVlIFVuaXZlcnNpdHkxKDAmBgNVBAsM
H0RlcGFydG1lbnQgb2YgQ29tcHV0ZXIgU2NpZW5jZXMxHzAdBgNVBAMMFnNwYXJl
Mi0yLmNzLnB1cmR1ZS5lZHUxJTAjBgkqhkiG9w0BCQEWFnNvZnR3YXJlQGNzLnB1
cmR1ZS5lZHUwggEiMA0GCSqGSIb3DQEBAQUAA4IBDwAwggEKAoIBAQDfJ5+InrmZ
jwVVpHJFbs1yYVGoonbErtEpKms9I37xOjvBsaOD9Zvmj0HnhTc2FjJ3KBJq2PYn
YJTO9CLgpyNROD6xsBH9Ie6Ltec/N+6xGtlFdZFZr6gQfDGGceHwPfRFKGTB86vc
AKfQ6SSe0hrk8spN2P7jN2mxjtIX/DG17qFCSRr8K8/PJL20JbXNbqMwiWJh3Qg4
/uw3TBXjOCIeCzQ4FjlkU4uDcPQwRCkcPpdD4fvTgNVxuWcAMhEnVR3T3f9gnOIg
tJa3ovbDRKhv75NBkBfF3aboP5imnSeEkRn0rDY1daMIIZmpzZf08R40MfB6w+tw
PeX0sYxJ0HV7AgMBAAGjezB5MAkGA1UdEwQCMAAwLAYJYIZIAYb4QgENBB8WHU9w
ZW5TU0wgR2VuZXJhdGVkIENlcnRpZmljYXRlMB0GA1UdDgQWBBTJWe0OLp9Ar0/t
d0p1BP8id25eIzAfBgNVHSMEGDAWgBTcOXbuN4TQFoy+7hdd1/8HmnjvDjANBgkq
hkiG9w0BAQUFAAOCAQEAPxobGfYPo41KwYkdoyehioWhht0AJ15/N9QMPEOiHZ9A
IJ+ToMYhBxR/35jDulHbRF3PNSdOGJz7Sqz1vny2C0ttB3jNsJhLpImWjHKkh5z9
ZnLsvM1cfGR8Th0n4cld56vTJyscqQeh85Cf6mhpYBq8zv7FjN/mM934+5NM2/Tn
e2+WqydY7QlgPCFOFaEbTTRTGxDWuLsjqKB0t3oDljC6ke9XSGFFUFymX9XzRByP
UhvVzzeuUix/79/WaOzrO1AX4YDBSGVV0cp4NYM0V1/nra6wZp3mZk186WuPx9qy
ZpLVx0IugHiufMLuIB7BHdi6bQz2Gr6pb4f7x/sIyw==
-----END CERTIFICATE-----
