Certificate:
    Data:
        Version: 3 (0x2)
        Serial Number: 1 (0x1)
        Signature Algorithm: sha1WithRSAEncryption
        Issuer: C=US, ST=Indiana, L=West Lafayette, O=Purdue University, OU=Department of Computer Sciences, CN=spare2-2.cs.purdue.edu/emailAddress=software@cs.purdue.edu
        Validity
            Not Before: Feb 12 02:21:16 2013 GMT
            Not After : Feb 12 02:21:16 2014 GMT
        Subject: C=US, ST=Indiana, O=Purdue University, OU=Department of Computer Sciences, CN=spare2-2.cs.purdue.edu/emailAddress=software@cs.purdue.edu
        Subject Public Key Info:
            Public Key Algorithm: rsaEncryption
                Public-Key: (2048 bit)
                Modulus:
                    00:cc:a7:c2:15:e9:cf:53:22:66:e9:bd:23:eb:f1:
                    dd:1f:ec:34:00:fc:80:a0:d3:02:ab:4c:97:65:a7:
                    63:10:da:4b:7a:7f:94:d4:4d:7f:19:c3:26:0e:7a:
                    4b:66:a5:39:5f:56:39:b4:0f:16:8d:e8:d3:58:e7:
                    78:0b:2e:42:9c:f2:b1:08:ce:65:fa:f6:7c:24:e3:
                    3b:8c:2a:d0:22:fa:73:dd:97:65:97:6a:ce:bb:39:
                    1c:d7:4b:8f:20:ec:03:bd:4b:7d:6e:1a:30:0d:fb:
                    bd:42:e0:2b:c9:f2:6e:f0:92:ce:d6:f8:3d:fe:c2:
                    c4:3b:b1:fe:ac:b5:54:30:2c:23:63:a6:b5:45:ee:
                    9b:85:bc:bf:53:ae:22:1f:16:de:dd:f6:24:5a:8b:
                    f1:6a:d3:5f:92:a2:bc:75:4b:6b:7d:27:d3:0a:67:
                    a8:45:ab:7a:ee:2e:ee:dd:1b:3b:b6:ec:e4:b8:93:
                    0c:91:6b:7d:33:17:67:bc:6f:03:ce:9d:59:80:1e:
                    48:26:8a:fe:50:17:46:40:90:43:72:f3:27:8d:dc:
                    dd:a5:b7:be:20:04:32:01:19:fa:13:9a:a2:e5:92:
                    3f:23:27:b3:eb:87:ce:dd:6e:da:87:7f:e3:bb:47:
                    26:81:d5:7e:a4:1f:1c:48:91:db:93:f1:52:b0:59:
                    d1:69
                Exponent: 65537 (0x10001)
        X509v3 extensions:
            X509v3 Basic Constraints: 
                CA:FALSE
            Netscape Comment: 
                OpenSSL Generated Certificate
            X509v3 Subject Key Identifier: 
                58:D3:38:96:16:6C:C3:9C:76:43:88:CF:D0:A6:DF:82:37:3A:20:3C
            X509v3 Authority Key Identifier: 
                keyid:DC:39:76:EE:37:84:D0:16:8C:BE:EE:17:5D:D7:FF:07:9A:78:EF:0E

    Signature Algorithm: sha1WithRSAEncryption
        c3:91:b8:e8:2e:f8:fe:d3:d9:bb:56:83:c2:a6:00:df:c6:7b:
        c4:98:32:28:85:80:64:c3:f7:36:7b:1a:cc:60:e2:cf:d0:9f:
        48:ce:8f:a5:be:b4:a6:07:99:43:0e:32:8a:86:a5:9f:5a:25:
        77:37:52:5a:ad:ca:bd:e7:c5:1c:81:a3:33:79:c2:8f:6e:6c:
        64:94:53:9b:67:2e:01:41:d8:be:a1:d5:b4:38:ca:43:4d:8a:
        aa:f8:d5:63:30:9f:05:c6:ff:0a:22:cb:b3:27:4c:c1:8a:bb:
        67:b6:21:9f:06:dd:9b:5c:49:8e:26:c6:71:c1:8d:9a:b5:ff:
        37:1f:98:7c:3a:bc:c5:b2:b7:c7:d7:c5:b5:a0:b5:33:a3:49:
        4d:b4:48:a3:e8:87:5c:3f:2a:74:a8:a5:94:bd:bd:57:36:a6:
        e0:c5:76:23:f8:54:46:89:5e:8a:58:ea:e9:51:a1:e7:b1:42:
        da:21:92:ea:a1:62:54:d9:35:0e:ff:1c:46:9a:39:01:89:b4:
        cb:22:67:61:d8:26:1c:a8:87:8c:33:ea:69:f9:35:83:83:fb:
        9c:7f:a3:8a:d4:96:1e:94:3d:93:c4:c5:69:40:35:e9:06:ef:
        84:8d:33:ba:ad:f4:19:80:86:1b:53:53:52:90:a9:b3:10:b0:
        46:cf:03:44
-----BEGIN CERTIFICATE-----
MIIEazCCA1OgAwIBAgIBATANBgkqhkiG9w0BAQUFADCBxjELMAkGA1UEBhMCVVMx
EDAOBgNVBAgMB0luZGlhbmExFzAVBgNVBAcMDldlc3QgTGFmYXlldHRlMRowGAYD
VQQKDBFQdXJkdWUgVW5pdmVyc2l0eTEoMCYGA1UECwwfRGVwYXJ0bWVudCBvZiBD
b21wdXRlciBTY2llbmNlczEfMB0GA1UEAwwWc3BhcmUyLTIuY3MucHVyZHVlLmVk
dTElMCMGCSqGSIb3DQEJARYWc29mdHdhcmVAY3MucHVyZHVlLmVkdTAeFw0xMzAy
MTIwMjIxMTZaFw0xNDAyMTIwMjIxMTZaMIGtMQswCQYDVQQGEwJVUzEQMA4GA1UE
CAwHSW5kaWFuYTEaMBgGA1UECgwRUHVyZHVlIFVuaXZlcnNpdHkxKDAmBgNVBAsM
H0RlcGFydG1lbnQgb2YgQ29tcHV0ZXIgU2NpZW5jZXMxHzAdBgNVBAMMFnNwYXJl
Mi0yLmNzLnB1cmR1ZS5lZHUxJTAjBgkqhkiG9w0BCQEWFnNvZnR3YXJlQGNzLnB1
cmR1ZS5lZHUwggEiMA0GCSqGSIb3DQEBAQUAA4IBDwAwggEKAoIBAQDMp8IV6c9T
ImbpvSPr8d0f7DQA/ICg0wKrTJdlp2MQ2kt6f5TUTX8ZwyYOektmpTlfVjm0DxaN
6NNY53gLLkKc8rEIzmX69nwk4zuMKtAi+nPdl2WXas67ORzXS48g7AO9S31uGjAN
+71C4CvJ8m7wks7W+D3+wsQ7sf6stVQwLCNjprVF7puFvL9TriIfFt7d9iRai/Fq
01+Sorx1S2t9J9MKZ6hFq3ruLu7dGzu27OS4kwyRa30zF2e8bwPOnVmAHkgmiv5Q
F0ZAkENy8yeN3N2lt74gBDIBGfoTmqLlkj8jJ7Prh87dbtqHf+O7RyaB1X6kHxxI
kduT8VKwWdFpAgMBAAGjezB5MAkGA1UdEwQCMAAwLAYJYIZIAYb4QgENBB8WHU9w
ZW5TU0wgR2VuZXJhdGVkIENlcnRpZmljYXRlMB0GA1UdDgQWBBRY0ziWFmzDnHZD
iM/Qpt+CNzogPDAfBgNVHSMEGDAWgBTcOXbuN4TQFoy+7hdd1/8HmnjvDjANBgkq
hkiG9w0BAQUFAAOCAQEAw5G46C74/tPZu1aDwqYA38Z7xJgyKIWAZMP3NnsazGDi
z9CfSM6Ppb60pgeZQw4yioaln1oldzdSWq3KvefFHIGjM3nCj25sZJRTm2cuAUHY
vqHVtDjKQ02KqvjVYzCfBcb/CiLLsydMwYq7Z7Yhnwbdm1xJjibGccGNmrX/Nx+Y
fDq8xbK3x9fFtaC1M6NJTbRIo+iHXD8qdKillL29Vzam4MV2I/hURoleiljq6VGh
57FC2iGS6qFiVNk1Dv8cRpo5AYm0yyJnYdgmHKiHjDPqafk1g4P7nH+jitSWHpQ9
k8TFaUA16QbvhI0zuq30GYCGG1NTUpCpsxCwRs8DRA==
-----END CERTIFICATE-----
