Certificate:
    Data:
        Version: 3 (0x2)
        Serial Number: 1 (0x1)
        Signature Algorithm: sha1WithRSAEncryption
        Issuer: C=US, ST=Indiana, L=West Lafayette, O=Purdue University, OU=Department of Computer Sciences, CN=spare2-2.cs.purdue.edu/emailAddress=software@cs.purdue.edu
        Validity
            Not Before: Feb 12 02:21:15 2013 GMT
            Not After : Feb 12 02:21:15 2014 GMT
        Subject: C=US, ST=Indiana, O=Purdue University, OU=Department of Computer Sciences, CN=spare2-2.cs.purdue.edu/emailAddress=software@cs.purdue.edu
        Subject Public Key Info:
            Public Key Algorithm: rsaEncryption
                Public-Key: (2048 bit)
                Modulus:
                    00:d8:fb:cb:26:c5:fd:7a:7b:4a:0f:ea:3c:c8:5b:
                    be:26:3f:7f:33:f2:25:5e:1d:3e:c9:59:c8:6f:e0:
                    b4:9f:61:b6:0e:2a:cc:ea:df:ae:cc:20:93:cc:20:
                    97:f0:22:45:bd:48:fa:07:c8:9b:f5:ba:35:c8:c1:
                    9b:b7:1f:4d:1b:83:76:38:10:a3:4a:ac:e9:97:ad:
                    4a:04:4f:54:e6:02:4f:ea:3c:c0:f2:44:f2:19:0e:
                    f8:f4:55:69:b9:a8:08:26:71:fa:4f:f2:a5:7e:33:
                    15:25:65:08:72:44:78:90:8b:35:ca:d6:10:7b:f0:
                    8c:08:7a:90:b6:41:8d:ab:dc:d8:87:93:cb:16:f4:
                    5b:21:cc:88:37:5b:67:dc:2e:da:80:04:2b:03:e2:
                    4b:3d:e4:fc:a4:a9:47:32:8e:10:5d:6d:8b:b5:92:
                    a5:61:57:8c:9d:c1:90:62:81:74:78:22:af:a8:63:
                    5a:ec:81:67:6a:0d:ea:7b:52:73:56:7e:9f:a3:8c:
                    f9:93:0b:88:7e:cd:54:6d:cf:a5:d1:31:20:cd:3b:
                    f9:36:d4:07:61:19:12:18:91:b8:fa:73:08:a7:e2:
                    d1:d0:f9:04:74:18:10:ff:74:c3:3a:4d:35:11:78:
                    c3:a9:fb:6b:c9:91:d6:a1:d9:c8:d2:37:02:89:3f:
                    3e:13
                Exponent: 65537 (0x10001)
        X509v3 extensions:
            X509v3 Basic Constraints: 
                CA:FALSE
            Netscape Comment: 
                OpenSSL Generated Certificate
            X509v3 Subject Key Identifier: 
                24:D8:A4:C7:DE:15:88:6E:D9:97:79:76:4A:A7:0B:7A:FC:6F:7A:2A
            X509v3 Authority Key Identifier: 
                keyid:DC:39:76:EE:37:84:D0:16:8C:BE:EE:17:5D:D7:FF:07:9A:78:EF:0E

    Signature Algorithm: sha1WithRSAEncryption
        67:6e:91:72:16:9a:f5:2b:15:26:b9:df:46:1d:12:6a:11:c9:
        3e:3b:72:f0:ce:7d:47:40:7e:be:5c:ff:db:01:a5:69:c4:cf:
        a3:ab:28:83:4b:b4:32:d0:b7:70:a8:8e:f4:db:49:8a:d6:e8:
        71:81:fb:e3:f8:0d:e1:f5:6e:ca:0c:d5:5c:d5:0e:0b:44:69:
        d6:27:25:50:38:5a:fa:f7:ae:9f:dd:8a:30:fe:b1:53:e3:64:
        67:6f:0d:f4:33:7b:fe:65:51:8e:de:c5:4b:4c:10:20:4e:38:
        94:cf:53:88:f6:6e:c4:9c:63:d1:eb:15:b1:cb:d9:ab:f7:80:
        7e:2c:41:10:cd:7d:de:c4:36:1d:52:0d:34:37:39:95:09:de:
        b0:f1:12:a0:5a:ab:35:62:1e:f9:61:7c:a0:2a:7e:27:46:70:
        8a:b1:04:b3:64:aa:3b:65:d7:3c:cf:88:4e:7f:4d:3f:67:b9:
        10:f9:74:94:1e:05:74:9b:3f:22:7b:e7:79:6d:2c:ee:e8:6f:
        b8:b1:01:49:4b:39:e7:a6:7a:48:f6:3a:aa:e5:23:a5:6b:9b:
        3b:d4:7e:23:88:fa:9e:d3:7a:5e:2c:5e:99:4c:d9:34:d2:5e:
        75:16:29:76:b8:3d:a3:b2:ab:be:45:60:07:61:22:ab:dc:e5:
        74:6d:ea:bc
-----BEGIN CERTIFICATE-----
MIIEazCCA1OgAwIBAgIBATANBgkqhkiG9w0BAQUFADCBxjELMAkGA1UEBhMCVVMx
EDAOBgNVBAgMB0luZGlhbmExFzAVBgNVBAcMDldlc3QgTGFmYXlldHRlMRowGAYD
VQQKDBFQdXJkdWUgVW5pdmVyc2l0eTEoMCYGA1UECwwfRGVwYXJ0bWVudCBvZiBD
b21wdXRlciBTY2llbmNlczEfMB0GA1UEAwwWc3BhcmUyLTIuY3MucHVyZHVlLmVk
dTElMCMGCSqGSIb3DQEJARYWc29mdHdhcmVAY3MucHVyZHVlLmVkdTAeFw0xMzAy
MTIwMjIxMTVaFw0xNDAyMTIwMjIxMTVaMIGtMQswCQYDVQQGEwJVUzEQMA4GA1UE
CAwHSW5kaWFuYTEaMBgGA1UECgwRUHVyZHVlIFVuaXZlcnNpdHkxKDAmBgNVBAsM
H0RlcGFydG1lbnQgb2YgQ29tcHV0ZXIgU2NpZW5jZXMxHzAdBgNVBAMMFnNwYXJl
Mi0yLmNzLnB1cmR1ZS5lZHUxJTAjBgkqhkiG9w0BCQEWFnNvZnR3YXJlQGNzLnB1
cmR1ZS5lZHUwggEiMA0GCSqGSIb3DQEBAQUAA4IBDwAwggEKAoIBAQDY+8smxf16
e0oP6jzIW74mP38z8iVeHT7JWchv4LSfYbYOKszq367MIJPMIJfwIkW9SPoHyJv1
ujXIwZu3H00bg3Y4EKNKrOmXrUoET1TmAk/qPMDyRPIZDvj0VWm5qAgmcfpP8qV+
MxUlZQhyRHiQizXK1hB78IwIepC2QY2r3NiHk8sW9FshzIg3W2fcLtqABCsD4ks9
5PykqUcyjhBdbYu1kqVhV4ydwZBigXR4Iq+oY1rsgWdqDep7UnNWfp+jjPmTC4h+
zVRtz6XRMSDNO/k21AdhGRIYkbj6cwin4tHQ+QR0GBD/dMM6TTUReMOp+2vJkdah
2cjSNwKJPz4TAgMBAAGjezB5MAkGA1UdEwQCMAAwLAYJYIZIAYb4QgENBB8WHU9w
ZW5TU0wgR2VuZXJhdGVkIENlcnRpZmljYXRlMB0GA1UdDgQWBBQk2KTH3hWIbtmX
eXZKpwt6/G96KjAfBgNVHSMEGDAWgBTcOXbuN4TQFoy+7hdd1/8HmnjvDjANBgkq
hkiG9w0BAQUFAAOCAQEAZ26Rchaa9SsVJrnfRh0SahHJPjty8M59R0B+vlz/2wGl
acTPo6sog0u0MtC3cKiO9NtJitbocYH74/gN4fVuygzVXNUOC0Rp1iclUDha+veu
n92KMP6xU+NkZ28N9DN7/mVRjt7FS0wQIE44lM9TiPZuxJxj0esVscvZq/eAfixB
EM193sQ2HVINNDc5lQnesPESoFqrNWIe+WF8oCp+J0ZwirEEs2SqO2XXPM+ITn9N
P2e5EPl0lB4FdJs/InvneW0s7uhvuLEBSUs556Z6SPY6quUjpWubO9R+I4j6ntN6
XixemUzZNNJedRYpdrg9o7KrvkVgB2Eiq9zldG3qvA==
-----END CERTIFICATE-----
