Certificate:
    Data:
        Version: 3 (0x2)
        Serial Number: 1 (0x1)
        Signature Algorithm: sha1WithRSAEncryption
        Issuer: C=US, ST=Indiana, L=West Lafayette, O=Purdue University, OU=Department of Computer Sciences, CN=spare2-2.cs.purdue.edu/emailAddress=software@cs.purdue.edu
        Validity
            Not Before: Feb 12 02:21:16 2013 GMT
            Not After : Feb 12 02:21:16 2014 GMT
        Subject: C=US, ST=Indiana, O=Purdue University, OU=Department of Computer Sciences, CN=spare2-2.cs.purdue.edu/emailAddress=software@cs.purdue.edu
        Subject Public Key Info:
            Public Key Algorithm: rsaEncryption
                Public-Key: (2048 bit)
                Modulus:
                    00:bf:e8:e7:c1:6f:54:c2:34:9a:7a:a2:c9:16:e8:
                    f7:43:21:ab:ae:3d:a1:ec:81:00:4c:e5:09:0a:ad:
                    a5:cd:9b:60:eb:26:81:61:ec:32:82:c2:b1:b8:f6:
                    99:35:94:e1:90:08:b1:eb:3a:ba:a6:0a:a1:01:7f:
                    9f:da:23:96:0e:97:0c:10:03:1c:d4:55:89:45:9e:
                    87:64:42:25:ac:6b:d4:09:5b:b6:f3:9d:e9:5d:8b:
                    a0:59:e5:be:bb:d7:31:b3:79:1a:7a:d4:41:dd:bb:
                    2c:a9:5e:a3:1b:a9:70:71:7b:c5:57:97:51:d8:3d:
                    3b:3c:66:f2:48:42:2e:93:b1:ec:79:9c:e1:c4:87:
                    55:d5:d4:4c:47:86:e6:67:a0:00:f5:cd:71:17:97:
                    46:83:80:67:dd:98:f8:35:5b:4f:4e:0d:40:a9:b7:
                    83:49:7a:26:65:bd:7c:18:67:96:07:72:71:43:0c:
                    e4:93:a4:be:8f:ea:1f:c7:36:7d:1a:4f:cb:d5:4a:
                    eb:78:69:b7:52:c8:3f:22:51:35:2c:9b:b3:c1:3a:
                    91:4c:20:c5:23:cb:a6:39:ba:b7:7d:8b:b3:2a:07:
                    72:f1:17:93:78:70:c3:e5:c2:3b:17:e7:4b:1c:bb:
                    ce:04:dc:43:b7:9e:0d:70:aa:b3:aa:a3:b8:ce:39:
                    c2:a1
                Exponent: 65537 (0x10001)
        X509v3 extensions:
            X509v3 Basic Constraints: 
                CA:FALSE
            Netscape Comment: 
                OpenSSL Generated Certificate
            X509v3 Subject Key Identifier: 
                44:02:4A:87:0A:13:D9:5A:DA:26:C4:11:35:D5:3A:5F:6F:4F:1C:AE
            X509v3 Authority Key Identifier: 
                keyid:DC:39:76:EE:37:84:D0:16:8C:BE:EE:17:5D:D7:FF:07:9A:78:EF:0E

    Signature Algorithm: sha1WithRSAEncryption
        2c:c8:70:88:55:88:7f:1a:01:39:19:de:96:4c:2e:5a:24:a1:
        e3:83:49:92:1e:3d:68:ea:54:f1:7a:3d:5f:00:00:c1:cd:f7:
        de:6e:b7:a2:6a:bf:81:c1:ac:80:d9:aa:5d:fd:f8:e6:02:3f:
        7e:c0:75:d0:eb:ff:eb:14:b9:91:81:e5:c1:40:44:1d:17:79:
        44:b0:3d:84:fa:ab:c9:97:df:2f:a4:76:79:37:4f:03:c8:ab:
        92:7c:89:07:01:c7:bc:1a:cb:13:64:cd:ec:03:6e:a2:24:08:
        a2:be:a6:3f:db:1a:b5:05:75:e9:e8:6d:e7:f3:54:9c:d8:e3:
        76:12:26:5d:57:3e:43:9a:a8:52:72:6b:7f:76:f7:0d:d2:3a:
        3d:66:48:44:2a:dc:89:c9:97:97:73:7e:50:80:b7:0c:50:15:
        3a:87:3f:14:5f:2d:85:ce:bb:52:c0:00:c5:5e:8e:b2:a9:63:
        55:73:ec:42:44:4e:88:e5:58:6f:e9:9c:f1:fb:00:82:30:75:
        8f:c7:72:e9:b8:e2:44:3e:4f:9f:36:f8:a6:e9:ad:2a:da:23:
        9b:5a:b7:48:9f:f4:30:9c:04:d8:f4:f7:bd:4f:56:37:56:f5:
        ff:6a:64:9c:fe:64:42:5d:80:98:02:6a:ab:5d:b3:67:47:43:
        da:22:21:d1
-----BEGIN CERTIFICATE-----
MIIEazCCA1OgAwIBAgIBATANBgkqhkiG9w0BAQUFADCBxjELMAkGA1UEBhMCVVMx
EDAOBgNVBAgMB0luZGlhbmExFzAVBgNVBAcMDldlc3QgTGFmYXlldHRlMRowGAYD
VQQKDBFQdXJkdWUgVW5pdmVyc2l0eTEoMCYGA1UECwwfRGVwYXJ0bWVudCBvZiBD
b21wdXRlciBTY2llbmNlczEfMB0GA1UEAwwWc3BhcmUyLTIuY3MucHVyZHVlLmVk
dTElMCMGCSqGSIb3DQEJARYWc29mdHdhcmVAY3MucHVyZHVlLmVkdTAeFw0xMzAy
MTIwMjIxMTZaFw0xNDAyMTIwMjIxMTZaMIGtMQswCQYDVQQGEwJVUzEQMA4GA1UE
CAwHSW5kaWFuYTEaMBgGA1UECgwRUHVyZHVlIFVuaXZlcnNpdHkxKDAmBgNVBAsM
H0RlcGFydG1lbnQgb2YgQ29tcHV0ZXIgU2NpZW5jZXMxHzAdBgNVBAMMFnNwYXJl
Mi0yLmNzLnB1cmR1ZS5lZHUxJTAjBgkqhkiG9w0BCQEWFnNvZnR3YXJlQGNzLnB1
cmR1ZS5lZHUwggEiMA0GCSqGSIb3DQEBAQUAA4IBDwAwggEKAoIBAQC/6OfBb1TC
NJp6oskW6PdDIauuPaHsgQBM5QkKraXNm2DrJoFh7DKCwrG49pk1lOGQCLHrOrqm
CqEBf5/aI5YOlwwQAxzUVYlFnodkQiWsa9QJW7bzneldi6BZ5b671zGzeRp61EHd
uyypXqMbqXBxe8VXl1HYPTs8ZvJIQi6Tsex5nOHEh1XV1ExHhuZnoAD1zXEXl0aD
gGfdmPg1W09ODUCpt4NJeiZlvXwYZ5YHcnFDDOSTpL6P6h/HNn0aT8vVSut4abdS
yD8iUTUsm7PBOpFMIMUjy6Y5urd9i7MqB3LxF5N4cMPlwjsX50scu84E3EO3ng1w
qrOqo7jOOcKhAgMBAAGjezB5MAkGA1UdEwQCMAAwLAYJYIZIAYb4QgENBB8WHU9w
ZW5TU0wgR2VuZXJhdGVkIENlcnRpZmljYXRlMB0GA1UdDgQWBBREAkqHChPZWtom
xBE11Tpfb08crjAfBgNVHSMEGDAWgBTcOXbuN4TQFoy+7hdd1/8HmnjvDjANBgkq
hkiG9w0BAQUFAAOCAQEALMhwiFWIfxoBORnelkwuWiSh44NJkh49aOpU8Xo9XwAA
wc333m63omq/gcGsgNmqXf345gI/fsB10Ov/6xS5kYHlwUBEHRd5RLA9hPqryZff
L6R2eTdPA8irknyJBwHHvBrLE2TN7ANuoiQIor6mP9satQV16eht5/NUnNjjdhIm
XVc+Q5qoUnJrf3b3DdI6PWZIRCrcicmXl3N+UIC3DFAVOoc/FF8thc67UsAAxV6O
sqljVXPsQkROiOVYb+mc8fsAgjB1j8dy6bjiRD5Pnzb4pumtKtojm1q3SJ/0MJwE
2PT3vU9WN1b1/2pknP5kQl2AmAJqq12zZ0dD2iIh0Q==
-----END CERTIFICATE-----
